; Function Attrs: mustprogress uwtable
define dso_local void @_ZN4absl14flags_internal21ProgramInvocationNameB5cxx11Ev(ptr noalias sret(%"class.std::__cxx11::basic_string") align 8 %agg.result) local_unnamed_addr #0 personality ptr @__gxx_personality_v0 {
entry:
  %ref.tmp = alloca %"class.std::allocator", align 1
  tail call void @_ZN4absl5Mutex4LockEv(ptr noundef nonnull align 8 dereferenceable(8) @_ZN4absl14flags_internalL18program_name_guardE)
  %0 = load ptr, ptr @_ZN4absl14flags_internalL12program_nameB5cxx11E, align 8
  %tobool.not = icmp eq ptr %0, null
  br i1 %tobool.not, label %cond.false, label %cond.true

cond.true:                                        ; preds = %entry
  invoke void @_ZNSt7__cxx1112basic_stringIcSt11char_traitsIcESaIcEEC1ERKS4_(ptr noundef nonnull align 8 dereferenceable(32) %agg.result, ptr noundef nonnull align 8 dereferenceable(32) %0)
          to label %cleanup.done unwind label %lpad

cond.false:                                       ; preds = %entry
  call void @_ZNSaIcEC1Ev(ptr noundef nonnull align 1 dereferenceable(1) %ref.tmp) #10
  %call.i2 = invoke noundef ptr @_ZNSt7__cxx1112basic_stringIcSt11char_traitsIcESaIcEE13_M_local_dataEv(ptr noundef nonnull align 8 dereferenceable(32) %agg.result)
          to label %call.i.noexc unwind label %lpad1

call.i.noexc:                                     ; preds = %cond.false
  invoke void @_ZNSt7__cxx1112basic_stringIcSt11char_traitsIcESaIcEE12_Alloc_hiderC1EPcRKS3_(ptr noundef nonnull align 8 dereferenceable(32) %agg.result, ptr noundef %call.i2, ptr noundef nonnull align 1 dereferenceable(1) %ref.tmp)
          to label %.noexc unwind label %lpad1

.noexc:                                           ; preds = %call.i.noexc
  invoke void @_ZNSt7__cxx1112basic_stringIcSt11char_traitsIcESaIcEE12_M_constructIPKcEEvT_S8_St20forward_iterator_tag(ptr noundef nonnull align 8 dereferenceable(32) %agg.result, ptr noundef nonnull @.str, ptr noundef nonnull getelementptr inbounds nuw (i8, ptr @.str, i64 7))
          to label %cleanup.action unwind label %lpad.i

lpad.i:                                           ; preds = %.noexc
  %1 = landingpad { ptr, i32 }
          cleanup
  call void @_ZNSaIcED2Ev(ptr noundef nonnull align 8 dereferenceable(32) %agg.result) #10
  br label %lpad1.body

cleanup.action:                                   ; preds = %.noexc
  call void @_ZNSaIcED1Ev(ptr noundef nonnull align 1 dereferenceable(1) %ref.tmp) #10
  br label %cleanup.done

cleanup.done:                                     ; preds = %cond.true, %cleanup.action
  invoke void @_ZN4absl5Mutex6UnlockEv(ptr noundef nonnull align 8 dereferenceable(8) @_ZN4absl14flags_internalL18program_name_guardE)
          to label %_ZN4absl9MutexLockD2Ev.exit unwind label %terminate.lpad.i

terminate.lpad.i:                                 ; preds = %cleanup.done
  %2 = landingpad { ptr, i32 }
          catch ptr null
  %3 = extractvalue { ptr, i32 } %2, 0
  call void @__clang_call_terminate(ptr %3) #11
  unreachable

_ZN4absl9MutexLockD2Ev.exit:                      ; preds = %cleanup.done
  ret void

lpad:                                             ; preds = %cond.true
  %4 = landingpad { ptr, i32 }
          cleanup
  br label %ehcleanup

lpad1:                                            ; preds = %call.i.noexc, %cond.false
  %5 = landingpad { ptr, i32 }
          cleanup
  br label %lpad1.body

lpad1.body:                                       ; preds = %lpad.i, %lpad1
  %eh.lpad-body = phi { ptr, i32 } [ %5, %lpad1 ], [ %1, %lpad.i ]
  call void @_ZNSaIcED1Ev(ptr noundef nonnull align 1 dereferenceable(1) %ref.tmp) #10
  br label %ehcleanup

ehcleanup:                                        ; preds = %lpad1.body, %lpad
  %.pn = phi { ptr, i32 } [ %4, %lpad ], [ %eh.lpad-body, %lpad1.body ]
  invoke void @_ZN4absl5Mutex6UnlockEv(ptr noundef nonnull align 8 dereferenceable(8) @_ZN4absl14flags_internalL18program_name_guardE)
          to label %_ZN4absl9MutexLockD2Ev.exit4 unwind label %terminate.lpad.i3

terminate.lpad.i3:                                ; preds = %ehcleanup
  %6 = landingpad { ptr, i32 }
          catch ptr null
  %7 = extractvalue { ptr, i32 } %6, 0
  call void @__clang_call_terminate(ptr %7) #11
  unreachable

_ZN4absl9MutexLockD2Ev.exit4:                     ; preds = %ehcleanup
  resume { ptr, i32 } %.pn
}